; Function Attrs: mustprogress uwtable
define internal fastcc void @_ZN32pxrInternal_v0_24__pxrReserved__12_GLOBAL__N_130_ScalingTypedSampledDataSourceIfE3NewIJSt10shared_ptrINS_24HdTypedSampledDataSourceIfEEEfEEES4_IS2_EDpOT_(ptr dead_on_unwind noalias nocapture writable writeonly align 8 %0, ptr %.0.val, ptr %.8.val, float %.0.val1) unnamed_addr #0 align 2 personality ptr @__gxx_personality_v0 {
  %2 = tail call noalias noundef nonnull dereferenceable(32) ptr @_Znwm(i64 noundef 32) #21
  store ptr getelementptr inbounds inrange(-16, 40) (i8, ptr @_ZTVN32pxrInternal_v0_24__pxrReserved__12_GLOBAL__N_130_ScalingTypedSampledDataSourceIfEE, i64 16), ptr %2, align 8
  %3 = getelementptr inbounds nuw i8, ptr %2, i64 8
  store ptr %.0.val, ptr %3, align 8
  %4 = getelementptr inbounds i8, ptr %2, i64 16
  store ptr %.8.val, ptr %4, align 8
  %.not.i.i.i.i = icmp eq ptr %.8.val, null
  br i1 %.not.i.i.i.i, label %_ZN32pxrInternal_v0_24__pxrReserved__12_GLOBAL__N_130_ScalingTypedSampledDataSourceIfEC2ERKSt10shared_ptrINS_24HdTypedSampledDataSourceIfEEEf.exit, label %5

5:                                                ; preds = %1
  %6 = getelementptr inbounds nuw i8, ptr %.8.val, i64 8
  %7 = load i8, ptr @__libc_single_threaded, align 1
  %.not.i.i.i.i.i = icmp eq i8 %7, 0
  br i1 %.not.i.i.i.i.i, label %11, label %8

8:                                                ; preds = %5
  %9 = load i32, ptr %6, align 4
  %10 = add nsw i32 %9, 1
  store i32 %10, ptr %6, align 4
  br label %_ZN32pxrInternal_v0_24__pxrReserved__12_GLOBAL__N_130_ScalingTypedSampledDataSourceIfEC2ERKSt10shared_ptrINS_24HdTypedSampledDataSourceIfEEEf.exit

11:                                               ; preds = %5
  %12 = atomicrmw volatile add ptr %6, i32 1 acq_rel, align 4
  br label %_ZN32pxrInternal_v0_24__pxrReserved__12_GLOBAL__N_130_ScalingTypedSampledDataSourceIfEC2ERKSt10shared_ptrINS_24HdTypedSampledDataSourceIfEEEf.exit

_ZN32pxrInternal_v0_24__pxrReserved__12_GLOBAL__N_130_ScalingTypedSampledDataSourceIfEC2ERKSt10shared_ptrINS_24HdTypedSampledDataSourceIfEEEf.exit: ; preds = %1, %8, %11
  %13 = getelementptr inbounds nuw i8, ptr %2, i64 24
  store float %.0.val1, ptr %13, align 8
  store ptr %2, ptr %0, align 8
  %14 = getelementptr inbounds nuw i8, ptr %0, i64 8
  store ptr null, ptr %14, align 8
  %15 = invoke noalias noundef nonnull dereferenceable(24) ptr @_Znwm(i64 noundef 24) #21
          to label %_ZNSt10shared_ptrIN32pxrInternal_v0_24__pxrReserved__12_GLOBAL__N_130_ScalingTypedSampledDataSourceIfEEEC2IS3_vEEPT_.exit unwind label %16

16:                                               ; preds = %_ZN32pxrInternal_v0_24__pxrReserved__12_GLOBAL__N_130_ScalingTypedSampledDataSourceIfEC2ERKSt10shared_ptrINS_24HdTypedSampledDataSourceIfEEEf.exit
  %17 = landingpad { ptr, i32 }
          catch ptr null
  %18 = extractvalue { ptr, i32 } %17, 0
  %19 = tail call ptr @__cxa_begin_catch(ptr %18) #18
  %20 = load ptr, ptr %2, align 8
  %21 = getelementptr inbounds i8, ptr %20, i64 8
  %22 = load ptr, ptr %21, align 8
  tail call void %22(ptr noundef nonnull align 8 dereferenceable(28) %2) #18
  invoke void @__cxa_rethrow() #20
          to label %29 unwind label %23

23:                                               ; preds = %16
  %24 = landingpad { ptr, i32 }
          cleanup
  invoke void @__cxa_end_catch()
          to label %25 unwind label %26

25:                                               ; preds = %23
  resume { ptr, i32 } %24

26:                                               ; preds = %23
  %27 = landingpad { ptr, i32 }
          catch ptr null
  %28 = extractvalue { ptr, i32 } %27, 0
  tail call void @__clang_call_terminate(ptr %28) #19
  unreachable

29:                                               ; preds = %16
  unreachable

_ZNSt10shared_ptrIN32pxrInternal_v0_24__pxrReserved__12_GLOBAL__N_130_ScalingTypedSampledDataSourceIfEEEC2IS3_vEEPT_.exit: ; preds = %_ZN32pxrInternal_v0_24__pxrReserved__12_GLOBAL__N_130_ScalingTypedSampledDataSourceIfEC2ERKSt10shared_ptrINS_24HdTypedSampledDataSourceIfEEEf.exit
  %30 = getelementptr inbounds nuw i8, ptr %15, i64 8
  store i32 1, ptr %30, align 8
  %31 = getelementptr inbounds nuw i8, ptr %15, i64 12
  store i32 1, ptr %31, align 4
  store ptr getelementptr inbounds inrange(-16, 40) (i8, ptr @_ZTVSt15_Sp_counted_ptrIPN32pxrInternal_v0_24__pxrReserved__12_GLOBAL__N_130_ScalingTypedSampledDataSourceIfEELN9__gnu_cxx12_Lock_policyE2EE, i64 16), ptr %15, align 8
  %32 = getelementptr inbounds nuw i8, ptr %15, i64 16
  store ptr %2, ptr %32, align 8
  store ptr %15, ptr %14, align 8
  ret void
}